
/root/RISCV-CPU/RISCV-CPU-main/riscv/testspace/test.om:     file format elf32-littleriscv


Disassembly of section .rom:

00000000 <.rom>:
   0:	00020137          	lui	sp,0x20
   4:	04c010ef          	jal	ra,1050 <main>
   8:	0ff00513          	li	a0,255
   c:	000306b7          	lui	a3,0x30
  10:	00a68223          	sb	a0,4(a3) # 30004 <__heap_start+0x2e004>
  14:	ff9ff06f          	j	c <f-0xff4>

Disassembly of section .text:

00001000 <f>:
    1000:	00100793          	li	a5,1
    1004:	00a7cc63          	blt	a5,a0,101c <f+0x1c>
    1008:	00001737          	lui	a4,0x1
    100c:	07472783          	lw	a5,116(a4) # 1074 <__bss_start>
    1010:	00178793          	addi	a5,a5,1
    1014:	06f72a23          	sw	a5,116(a4)
    1018:	00008067          	ret
    101c:	ff010113          	addi	sp,sp,-16 # 1fff0 <__heap_start+0x1dff0>
    1020:	00112623          	sw	ra,12(sp)
    1024:	000017b7          	lui	a5,0x1
    1028:	0747a783          	lw	a5,116(a5) # 1074 <__bss_start>
    102c:	06078793          	addi	a5,a5,96
    1030:	0ff7f793          	andi	a5,a5,255
    1034:	00030737          	lui	a4,0x30
    1038:	00f70023          	sb	a5,0(a4) # 30000 <__heap_start+0x2e000>
    103c:	fff50513          	addi	a0,a0,-1
    1040:	fc1ff0ef          	jal	ra,1000 <f>
    1044:	00c12083          	lw	ra,12(sp)
    1048:	01010113          	addi	sp,sp,16
    104c:	00008067          	ret

00001050 <main>:
    1050:	ff010113          	addi	sp,sp,-16
    1054:	00112623          	sw	ra,12(sp)
    1058:	00300513          	li	a0,3
    105c:	fa5ff0ef          	jal	ra,1000 <f>
    1060:	000017b7          	lui	a5,0x1
    1064:	0747a503          	lw	a0,116(a5) # 1074 <__bss_start>
    1068:	00c12083          	lw	ra,12(sp)
    106c:	01010113          	addi	sp,sp,16
    1070:	00008067          	ret
